
pwm.elf:     file format elf32-avr

Sections:
Idx Name          Size      VMA       LMA       File off  Algn
  0 .text         00000870  00000000  00000000  00000094  2**1
                  CONTENTS, ALLOC, LOAD, READONLY, CODE
  1 .data         0000005e  00800060  00000870  00000904  2**0
                  CONTENTS, ALLOC, LOAD, DATA
  2 .bss          00000004  008000be  008000be  00000962  2**0
                  ALLOC
  3 .debug_aranges 00000040  00000000  00000000  00000962  2**0
                  CONTENTS, READONLY, DEBUGGING
  4 .debug_pubnames 000000c8  00000000  00000000  000009a2  2**0
                  CONTENTS, READONLY, DEBUGGING
  5 .debug_info   0000058e  00000000  00000000  00000a6a  2**0
                  CONTENTS, READONLY, DEBUGGING
  6 .debug_abbrev 00000297  00000000  00000000  00000ff8  2**0
                  CONTENTS, READONLY, DEBUGGING
  7 .debug_line   000006e4  00000000  00000000  0000128f  2**0
                  CONTENTS, READONLY, DEBUGGING
  8 .debug_frame  000000f0  00000000  00000000  00001974  2**2
                  CONTENTS, READONLY, DEBUGGING
  9 .debug_str    000001d0  00000000  00000000  00001a64  2**0
                  CONTENTS, READONLY, DEBUGGING
 10 .debug_loc    00000232  00000000  00000000  00001c34  2**0
                  CONTENTS, READONLY, DEBUGGING

Disassembly of section .text:

00000000 <__vectors>:
   0:	0c 94 2a 00 	jmp	0x54	; 0x54 <__ctors_end>
   4:	0c 94 47 00 	jmp	0x8e	; 0x8e <__bad_interrupt>
   8:	0c 94 47 00 	jmp	0x8e	; 0x8e <__bad_interrupt>
   c:	0c 94 47 00 	jmp	0x8e	; 0x8e <__bad_interrupt>
  10:	0c 94 47 00 	jmp	0x8e	; 0x8e <__bad_interrupt>
  14:	0c 94 47 00 	jmp	0x8e	; 0x8e <__bad_interrupt>
  18:	0c 94 47 00 	jmp	0x8e	; 0x8e <__bad_interrupt>
  1c:	0c 94 47 00 	jmp	0x8e	; 0x8e <__bad_interrupt>
  20:	0c 94 47 00 	jmp	0x8e	; 0x8e <__bad_interrupt>
  24:	0c 94 47 00 	jmp	0x8e	; 0x8e <__bad_interrupt>
  28:	0c 94 47 00 	jmp	0x8e	; 0x8e <__bad_interrupt>
  2c:	0c 94 47 00 	jmp	0x8e	; 0x8e <__bad_interrupt>
  30:	0c 94 47 00 	jmp	0x8e	; 0x8e <__bad_interrupt>
  34:	0c 94 47 00 	jmp	0x8e	; 0x8e <__bad_interrupt>
  38:	0c 94 47 00 	jmp	0x8e	; 0x8e <__bad_interrupt>
  3c:	0c 94 47 00 	jmp	0x8e	; 0x8e <__bad_interrupt>
  40:	0c 94 47 00 	jmp	0x8e	; 0x8e <__bad_interrupt>
  44:	0c 94 47 00 	jmp	0x8e	; 0x8e <__bad_interrupt>
  48:	0c 94 47 00 	jmp	0x8e	; 0x8e <__bad_interrupt>
  4c:	0c 94 47 00 	jmp	0x8e	; 0x8e <__bad_interrupt>
  50:	0c 94 47 00 	jmp	0x8e	; 0x8e <__bad_interrupt>

00000054 <__ctors_end>:
  54:	11 24       	eor	r1, r1
  56:	1f be       	out	0x3f, r1	; 63
  58:	cf e5       	ldi	r28, 0x5F	; 95
  5a:	d4 e0       	ldi	r29, 0x04	; 4
  5c:	de bf       	out	0x3e, r29	; 62
  5e:	cd bf       	out	0x3d, r28	; 61

00000060 <__do_copy_data>:
  60:	10 e0       	ldi	r17, 0x00	; 0
  62:	a0 e6       	ldi	r26, 0x60	; 96
  64:	b0 e0       	ldi	r27, 0x00	; 0
  66:	e0 e7       	ldi	r30, 0x70	; 112
  68:	f8 e0       	ldi	r31, 0x08	; 8
  6a:	02 c0       	rjmp	.+4      	; 0x70 <.do_copy_data_start>

0000006c <.do_copy_data_loop>:
  6c:	05 90       	lpm	r0, Z+
  6e:	0d 92       	st	X+, r0

00000070 <.do_copy_data_start>:
  70:	ae 3b       	cpi	r26, 0xBE	; 190
  72:	b1 07       	cpc	r27, r17
  74:	d9 f7       	brne	.-10     	; 0x6c <.do_copy_data_loop>

00000076 <__do_clear_bss>:
  76:	10 e0       	ldi	r17, 0x00	; 0
  78:	ae eb       	ldi	r26, 0xBE	; 190
  7a:	b0 e0       	ldi	r27, 0x00	; 0
  7c:	01 c0       	rjmp	.+2      	; 0x80 <.do_clear_bss_start>

0000007e <.do_clear_bss_loop>:
  7e:	1d 92       	st	X+, r1

00000080 <.do_clear_bss_start>:
  80:	a2 3c       	cpi	r26, 0xC2	; 194
  82:	b1 07       	cpc	r27, r17
  84:	e1 f7       	brne	.-8      	; 0x7e <.do_clear_bss_loop>
  86:	0e 94 49 00 	call	0x92	; 0x92 <main>
  8a:	0c 94 36 04 	jmp	0x86c	; 0x86c <_exit>

0000008e <__bad_interrupt>:
  8e:	0c 94 00 00 	jmp	0	; 0x0 <__vectors>

00000092 <main>:
#define C2 2
#define C3 3

#define OC0 3;

int main(){
  92:	2f 92       	push	r2
  94:	3f 92       	push	r3
  96:	4f 92       	push	r4
  98:	5f 92       	push	r5
  9a:	6f 92       	push	r6
  9c:	7f 92       	push	r7
  9e:	8f 92       	push	r8
  a0:	9f 92       	push	r9
  a2:	af 92       	push	r10
  a4:	bf 92       	push	r11
  a6:	cf 92       	push	r12
  a8:	df 92       	push	r13
  aa:	ef 92       	push	r14
  ac:	ff 92       	push	r15
  ae:	0f 93       	push	r16
  b0:	1f 93       	push	r17
  b2:	df 93       	push	r29
  b4:	cf 93       	push	r28
  b6:	cd b7       	in	r28, 0x3d	; 61
  b8:	de b7       	in	r29, 0x3e	; 62
  ba:	62 97       	sbiw	r28, 0x12	; 18
  bc:	0f b6       	in	r0, 0x3f	; 63
  be:	f8 94       	cli
  c0:	de bf       	out	0x3e, r29	; 62
  c2:	0f be       	out	0x3f, r0	; 63
  c4:	cd bf       	out	0x3d, r28	; 61

   unsigned char stare = C1;
   char buf_pit[4];
   unsigned long int a,b,c;

   sysinit();
  c6:	0e 94 b0 02 	call	0x560	; 0x560 <sysinit>
   
   TCCR2 = 0b00001110;
  ca:	8e e0       	ldi	r24, 0x0E	; 14
  cc:	85 bd       	out	0x25, r24	; 37
   OCR2 = 250-1;
  ce:	89 ef       	ldi	r24, 0xF9	; 249
  d0:	83 bd       	out	0x23, r24	; 35
   
   //          __ __Fast PWM
   //         |  |
   TCCR0 = 0b01101100;
  d2:	8c e6       	ldi	r24, 0x6C	; 108
  d4:	83 bf       	out	0x33, r24	; 51
   //          || |||
   //          || ------ clk(i/o)/256
   //          ||
   //          ---------Clear OC0 on compare match, set OC0 at bottom
   OCR0 = 128;
  d6:	80 e8       	ldi	r24, 0x80	; 128
  d8:	8c bf       	out	0x3c, r24	; 60
   
   setbit(DDRB, OC0);
  da:	bb 9a       	sbi	0x17, 3	; 23
  dc:	2f e7       	ldi	r18, 0x7F	; 127
  de:	2a 8b       	std	Y+18, r18	; 0x12
  e0:	00 e0       	ldi	r16, 0x00	; 0
  e2:	29 8b       	std	Y+17, r18	; 0x11
  e4:	18 8a       	std	Y+16, r1	; 0x10
  e6:	1f 86       	std	Y+15, r1	; 0x0f
  e8:	1e 86       	std	Y+14, r1	; 0x0e
  ea:	38 e1       	ldi	r19, 0x18	; 24
  ec:	3d 87       	std	Y+13, r19	; 0x0d
  ee:	49 e0       	ldi	r20, 0x09	; 9
  f0:	4c 87       	std	Y+12, r20	; 0x0c
  f2:	82 e3       	ldi	r24, 0x32	; 50
  f4:	90 e0       	ldi	r25, 0x00	; 0
  f6:	9a 87       	std	Y+10, r25	; 0x0a
  f8:	89 87       	std	Y+9, r24	; 0x09
  fa:	11 e0       	ldi	r17, 0x01	; 1
  fc:	0e c0       	rjmp	.+28     	; 0x11a <main+0x88>


   while(1){
      if(loop_cnt==200){
         code_ante=code_now;
         code_now = kbscan();
  fe:	0e 94 35 03 	call	0x66a	; 0x66a <kbscan>
         if(code_now!=0x7f && code_ante==0x7f){
 102:	8f 37       	cpi	r24, 0x7F	; 127
 104:	39 f0       	breq	.+14     	; 0x114 <main+0x82>
 106:	9a 89       	ldd	r25, Y+18	; 0x12
 108:	9f 37       	cpi	r25, 0x7F	; 127
 10a:	21 f4       	brne	.+8      	; 0x114 <main+0x82>
 10c:	8a 8b       	std	Y+18, r24	; 0x12
 10e:	89 8b       	std	Y+17, r24	; 0x11
 110:	01 e0       	ldi	r16, 0x01	; 1
 112:	02 c0       	rjmp	.+4      	; 0x118 <main+0x86>
 114:	8a 8b       	std	Y+18, r24	; 0x12
 116:	00 e0       	ldi	r16, 0x00	; 0
 118:	18 8a       	std	Y+16, r1	; 0x10
            kbcode=code_now;
         }
         loop_cnt=0;
      }

      if(TIFR & 1<<OCF2){
 11a:	08 b6       	in	r0, 0x38	; 56
 11c:	07 fe       	sbrs	r0, 7
 11e:	76 c0       	rjmp	.+236    	; 0x20c <main+0x17a>
         TIFR |= 1<<OCF2;
 120:	88 b7       	in	r24, 0x38	; 56
 122:	80 68       	ori	r24, 0x80	; 128
 124:	88 bf       	out	0x38, r24	; 56
         cycles++;
 126:	2f 85       	ldd	r18, Y+15	; 0x0f
 128:	2f 5f       	subi	r18, 0xFF	; 255
 12a:	2f 87       	std	Y+15, r18	; 0x0f

         if(cycles == 125){
 12c:	2d 37       	cpi	r18, 0x7D	; 125
 12e:	09 f0       	breq	.+2      	; 0x132 <main+0xa0>
 130:	52 c0       	rjmp	.+164    	; 0x1d6 <main+0x144>
            cycles = 0;
            s++;
 132:	3e 85       	ldd	r19, Y+14	; 0x0e
 134:	3f 5f       	subi	r19, 0xFF	; 255
 136:	3e 87       	std	Y+14, r19	; 0x0e
            if(s==60){
 138:	3c 33       	cpi	r19, 0x3C	; 60
 13a:	21 f4       	brne	.+8      	; 0x144 <main+0xb2>
               s = 0;
               m++;
 13c:	4d 85       	ldd	r20, Y+13	; 0x0d
 13e:	4f 5f       	subi	r20, 0xFF	; 255
 140:	4d 87       	std	Y+13, r20	; 0x0d
 142:	1e 86       	std	Y+14, r1	; 0x0e
            }
            if(m==60){
 144:	5d 85       	ldd	r21, Y+13	; 0x0d
 146:	5c 33       	cpi	r21, 0x3C	; 60
 148:	21 f4       	brne	.+8      	; 0x152 <main+0xc0>
               m = 0;
               h++; 
 14a:	8c 85       	ldd	r24, Y+12	; 0x0c
 14c:	8f 5f       	subi	r24, 0xFF	; 255
 14e:	8c 87       	std	Y+12, r24	; 0x0c
 150:	1d 86       	std	Y+13, r1	; 0x0d
            }
            if(h==24)
 152:	9c 85       	ldd	r25, Y+12	; 0x0c
 154:	98 31       	cpi	r25, 0x18	; 24
 156:	09 f4       	brne	.+2      	; 0x15a <main+0xc8>
 158:	1c 86       	std	Y+12, r1	; 0x0c
               h=0;
               gotoLC(2,1);
 15a:	82 e0       	ldi	r24, 0x02	; 2
 15c:	61 e0       	ldi	r22, 0x01	; 1
 15e:	0e 94 e3 02 	call	0x5c6	; 0x5c6 <gotoLC>
               if(h>9){
 162:	2c 85       	ldd	r18, Y+12	; 0x0c
 164:	2a 30       	cpi	r18, 0x0A	; 10
 166:	30 f0       	brcs	.+12     	; 0x174 <main+0xe2>
                  digit = h/10 + '0';
                  putchLCD(digit);
 168:	82 2f       	mov	r24, r18
 16a:	6a e0       	ldi	r22, 0x0A	; 10
 16c:	0e 94 ac 03 	call	0x758	; 0x758 <__udivmodqi4>
 170:	80 5d       	subi	r24, 0xD0	; 208
 172:	01 c0       	rjmp	.+2      	; 0x176 <main+0xe4>
                  digit = h%10 + '0';
                  putchLCD(digit);
               } else {
                  putchLCD(' ');
 174:	80 e2       	ldi	r24, 0x20	; 32
 176:	0e 94 01 03 	call	0x602	; 0x602 <putchLCD>
                  digit = h%10 + '0';
                  putchLCD(digit);
 17a:	8c 85       	ldd	r24, Y+12	; 0x0c
 17c:	6a e0       	ldi	r22, 0x0A	; 10
 17e:	0e 94 ac 03 	call	0x758	; 0x758 <__udivmodqi4>
 182:	89 2f       	mov	r24, r25
 184:	80 5d       	subi	r24, 0xD0	; 208
 186:	0e 94 01 03 	call	0x602	; 0x602 <putchLCD>
               }
               putchLCD(':');
 18a:	8a e3       	ldi	r24, 0x3A	; 58
 18c:	0e 94 01 03 	call	0x602	; 0x602 <putchLCD>
               digit = m/10 + '0';
               putchLCD(digit);
 190:	8d 85       	ldd	r24, Y+13	; 0x0d
 192:	6a e0       	ldi	r22, 0x0A	; 10
 194:	0e 94 ac 03 	call	0x758	; 0x758 <__udivmodqi4>
 198:	80 5d       	subi	r24, 0xD0	; 208
 19a:	0e 94 01 03 	call	0x602	; 0x602 <putchLCD>
               digit = m%10 + '0';
               putchLCD(digit);
 19e:	8d 85       	ldd	r24, Y+13	; 0x0d
 1a0:	6a e0       	ldi	r22, 0x0A	; 10
 1a2:	0e 94 ac 03 	call	0x758	; 0x758 <__udivmodqi4>
 1a6:	89 2f       	mov	r24, r25
 1a8:	80 5d       	subi	r24, 0xD0	; 208
 1aa:	0e 94 01 03 	call	0x602	; 0x602 <putchLCD>

               putchLCD(':');
 1ae:	8a e3       	ldi	r24, 0x3A	; 58
 1b0:	0e 94 01 03 	call	0x602	; 0x602 <putchLCD>
               digit = s/10 + '0';
               putchLCD(digit);
 1b4:	8e 85       	ldd	r24, Y+14	; 0x0e
 1b6:	6a e0       	ldi	r22, 0x0A	; 10
 1b8:	0e 94 ac 03 	call	0x758	; 0x758 <__udivmodqi4>
 1bc:	80 5d       	subi	r24, 0xD0	; 208
 1be:	0e 94 01 03 	call	0x602	; 0x602 <putchLCD>
               digit = s%10 + '0';
               putchLCD(digit);
 1c2:	8e 85       	ldd	r24, Y+14	; 0x0e
 1c4:	6a e0       	ldi	r22, 0x0A	; 10
 1c6:	0e 94 ac 03 	call	0x758	; 0x758 <__udivmodqi4>
 1ca:	89 2f       	mov	r24, r25
 1cc:	80 5d       	subi	r24, 0xD0	; 208
 1ce:	0e 94 01 03 	call	0x602	; 0x602 <putchLCD>
 1d2:	1f 86       	std	Y+15, r1	; 0x0f
 1d4:	11 c0       	rjmp	.+34     	; 0x1f8 <main+0x166>
            } 
         if(cycles == 67) {
 1d6:	3f 85       	ldd	r19, Y+15	; 0x0f
 1d8:	33 34       	cpi	r19, 0x43	; 67
 1da:	71 f4       	brne	.+28     	; 0x1f8 <main+0x166>
            gotoLC(2,3);
 1dc:	82 e0       	ldi	r24, 0x02	; 2
 1de:	63 e0       	ldi	r22, 0x03	; 3
 1e0:	0e 94 e3 02 	call	0x5c6	; 0x5c6 <gotoLC>
            putchLCD(' ');
 1e4:	80 e2       	ldi	r24, 0x20	; 32
 1e6:	0e 94 01 03 	call	0x602	; 0x602 <putchLCD>
            gotoLC(2,6);
 1ea:	82 e0       	ldi	r24, 0x02	; 2
 1ec:	66 e0       	ldi	r22, 0x06	; 6
 1ee:	0e 94 e3 02 	call	0x5c6	; 0x5c6 <gotoLC>
            putchLCD(' ');
 1f2:	80 e2       	ldi	r24, 0x20	; 32
 1f4:	0e 94 01 03 	call	0x602	; 0x602 <putchLCD>
         }

         if(TIFR & 1<<OCF2){
 1f8:	08 b6       	in	r0, 0x38	; 56
 1fa:	07 fe       	sbrs	r0, 7
 1fc:	07 c0       	rjmp	.+14     	; 0x20c <main+0x17a>
            clrLCD();
 1fe:	0e 94 2e 03 	call	0x65c	; 0x65c <clrLCD>
            putsLCD("ERROR");
 202:	80 e6       	ldi	r24, 0x60	; 96
 204:	90 e0       	ldi	r25, 0x00	; 0
 206:	0e 94 22 03 	call	0x644	; 0x644 <putsLCD>
 20a:	ff cf       	rjmp	.-2      	; 0x20a <main+0x178>
            while(1){}
         }
      }

      //PWM start
      if(kbhit  && (kbcode == 'C' || kbcode == 'D')){
 20c:	00 23       	and	r16, r16
 20e:	09 f4       	brne	.+2      	; 0x212 <main+0x180>
 210:	e7 c0       	rjmp	.+462    	; 0x3e0 <main+0x34e>
 212:	89 89       	ldd	r24, Y+17	; 0x11
 214:	83 54       	subi	r24, 0x43	; 67
 216:	82 30       	cpi	r24, 0x02	; 2
 218:	08 f0       	brcs	.+2      	; 0x21c <main+0x18a>
 21a:	ea c0       	rjmp	.+468    	; 0x3f0 <main+0x35e>
         kbhit = 0;
         if(kbcode == 'C'){
 21c:	49 89       	ldd	r20, Y+17	; 0x11
 21e:	43 34       	cpi	r20, 0x43	; 67
 220:	69 f4       	brne	.+26     	; 0x23c <main+0x1aa>
            lumi += 5;
 222:	89 85       	ldd	r24, Y+9	; 0x09
 224:	9a 85       	ldd	r25, Y+10	; 0x0a
 226:	05 96       	adiw	r24, 0x05	; 5
 228:	9a 87       	std	Y+10, r25	; 0x0a
 22a:	89 87       	std	Y+9, r24	; 0x09
 22c:	85 36       	cpi	r24, 0x65	; 101
 22e:	91 05       	cpc	r25, r1
 230:	94 f0       	brlt	.+36     	; 0x256 <main+0x1c4>
 232:	24 e6       	ldi	r18, 0x64	; 100
 234:	30 e0       	ldi	r19, 0x00	; 0
 236:	3a 87       	std	Y+10, r19	; 0x0a
 238:	29 87       	std	Y+9, r18	; 0x09
 23a:	0d c0       	rjmp	.+26     	; 0x256 <main+0x1c4>
            if(lumi > 100)
               lumi = 100;
         }
         if(kbcode == 'D'){
 23c:	39 89       	ldd	r19, Y+17	; 0x11
 23e:	34 34       	cpi	r19, 0x44	; 68
 240:	51 f4       	brne	.+20     	; 0x256 <main+0x1c4>
            lumi -= 5;
 242:	49 85       	ldd	r20, Y+9	; 0x09
 244:	5a 85       	ldd	r21, Y+10	; 0x0a
 246:	45 50       	subi	r20, 0x05	; 5
 248:	50 40       	sbci	r21, 0x00	; 0
 24a:	5a 87       	std	Y+10, r21	; 0x0a
 24c:	49 87       	std	Y+9, r20	; 0x09
 24e:	57 ff       	sbrs	r21, 7
 250:	02 c0       	rjmp	.+4      	; 0x256 <main+0x1c4>
 252:	1a 86       	std	Y+10, r1	; 0x0a
 254:	19 86       	std	Y+9, r1	; 0x09
            if(lumi < 0)
               lumi = 0;
         }
         OCR0 = lumi*255/100;
 256:	29 85       	ldd	r18, Y+9	; 0x09
 258:	3a 85       	ldd	r19, Y+10	; 0x0a
 25a:	4f ef       	ldi	r20, 0xFF	; 255
 25c:	50 e0       	ldi	r21, 0x00	; 0
 25e:	24 9f       	mul	r18, r20
 260:	c0 01       	movw	r24, r0
 262:	25 9f       	mul	r18, r21
 264:	90 0d       	add	r25, r0
 266:	34 9f       	mul	r19, r20
 268:	90 0d       	add	r25, r0
 26a:	11 24       	eor	r1, r1
 26c:	64 e6       	ldi	r22, 0x64	; 100
 26e:	70 e0       	ldi	r23, 0x00	; 0
 270:	0e 94 b8 03 	call	0x770	; 0x770 <__divmodhi4>
 274:	6c bf       	out	0x3c, r22	; 60
         gotoLC(2,11);
 276:	82 e0       	ldi	r24, 0x02	; 2
 278:	6b e0       	ldi	r22, 0x0B	; 11
 27a:	0e 94 e3 02 	call	0x5c6	; 0x5c6 <gotoLC>
         putsLCD("L=");
 27e:	86 e6       	ldi	r24, 0x66	; 102
 280:	90 e0       	ldi	r25, 0x00	; 0
 282:	0e 94 22 03 	call	0x644	; 0x644 <putsLCD>
         itoa(lumi,buf_lumi,10);
 286:	89 85       	ldd	r24, Y+9	; 0x09
 288:	9a 85       	ldd	r25, Y+10	; 0x0a
 28a:	be 01       	movw	r22, r28
 28c:	6f 5f       	subi	r22, 0xFF	; 255
 28e:	7f 4f       	sbci	r23, 0xFF	; 255
 290:	4a e0       	ldi	r20, 0x0A	; 10
 292:	50 e0       	ldi	r21, 0x00	; 0
 294:	0e 94 fd 03 	call	0x7fa	; 0x7fa <itoa>
         putsLCD(buf_lumi);
 298:	ce 01       	movw	r24, r28
 29a:	01 96       	adiw	r24, 0x01	; 1
 29c:	0e 94 22 03 	call	0x644	; 0x644 <putsLCD>
         putsLCD("% " );
 2a0:	89 e6       	ldi	r24, 0x69	; 105
 2a2:	90 e0       	ldi	r25, 0x00	; 0
 2a4:	0e 94 22 03 	call	0x644	; 0x644 <putsLCD>
 2a8:	9b c0       	rjmp	.+310    	; 0x3e0 <main+0x34e>
      }
      //PWM end

	  //c pitagoreic start
      if( kbhit && kbcode>='0' && kbcode<='9'){
 2aa:	59 89       	ldd	r21, Y+17	; 0x11
 2ac:	5a 33       	cpi	r21, 0x3A	; 58
 2ae:	08 f0       	brcs	.+2      	; 0x2b2 <main+0x220>
 2b0:	97 c0       	rjmp	.+302    	; 0x3e0 <main+0x34e>
         kbhit=0;
         switch(stare){
 2b2:	12 30       	cpi	r17, 0x02	; 2
 2b4:	c1 f0       	breq	.+48     	; 0x2e6 <main+0x254>
 2b6:	13 30       	cpi	r17, 0x03	; 3
 2b8:	09 f1       	breq	.+66     	; 0x2fc <main+0x26a>
 2ba:	11 30       	cpi	r17, 0x01	; 1
 2bc:	09 f0       	breq	.+2      	; 0x2c0 <main+0x22e>
 2be:	90 c0       	rjmp	.+288    	; 0x3e0 <main+0x34e>
         	case C1:   //cifra 0
               gotoLC(1,1);
 2c0:	81 e0       	ldi	r24, 0x01	; 1
 2c2:	61 e0       	ldi	r22, 0x01	; 1
 2c4:	0e 94 e3 02 	call	0x5c6	; 0x5c6 <gotoLC>
               putsLCD("                ");
 2c8:	8c e6       	ldi	r24, 0x6C	; 108
 2ca:	90 e0       	ldi	r25, 0x00	; 0
 2cc:	0e 94 22 03 	call	0x644	; 0x644 <putsLCD>
               buf_pit[0]=kbcode;
 2d0:	89 89       	ldd	r24, Y+17	; 0x11
 2d2:	8d 83       	std	Y+5, r24	; 0x05
               gotoLC(1,1);
 2d4:	81 e0       	ldi	r24, 0x01	; 1
 2d6:	61 e0       	ldi	r22, 0x01	; 1
 2d8:	0e 94 e3 02 	call	0x5c6	; 0x5c6 <gotoLC>
               putchLCD(kbcode);
 2dc:	89 89       	ldd	r24, Y+17	; 0x11
 2de:	0e 94 01 03 	call	0x602	; 0x602 <putchLCD>
 2e2:	12 e0       	ldi	r17, 0x02	; 2
 2e4:	7d c0       	rjmp	.+250    	; 0x3e0 <main+0x34e>
               stare=C2;
               break;

            case C2:
               buf_pit[1]=kbcode;
 2e6:	99 89       	ldd	r25, Y+17	; 0x11
 2e8:	9e 83       	std	Y+6, r25	; 0x06
               gotoLC(1,2);
 2ea:	81 e0       	ldi	r24, 0x01	; 1
 2ec:	62 e0       	ldi	r22, 0x02	; 2
 2ee:	0e 94 e3 02 	call	0x5c6	; 0x5c6 <gotoLC>
               putchLCD(kbcode);
 2f2:	89 89       	ldd	r24, Y+17	; 0x11
 2f4:	0e 94 01 03 	call	0x602	; 0x602 <putchLCD>
 2f8:	13 e0       	ldi	r17, 0x03	; 3
 2fa:	72 c0       	rjmp	.+228    	; 0x3e0 <main+0x34e>
               stare=C3;
               break;
         
            case C3:
               buf_pit[2]=kbcode;
 2fc:	29 89       	ldd	r18, Y+17	; 0x11
 2fe:	2f 83       	std	Y+7, r18	; 0x07
               buf_pit[3]='\0';
 300:	18 86       	std	Y+8, r1	; 0x08
               gotoLC(1,3);
 302:	81 e0       	ldi	r24, 0x01	; 1
 304:	63 e0       	ldi	r22, 0x03	; 3
 306:	0e 94 e3 02 	call	0x5c6	; 0x5c6 <gotoLC>
               putchLCD(kbcode);
 30a:	89 89       	ldd	r24, Y+17	; 0x11
 30c:	0e 94 01 03 	call	0x602	; 0x602 <putchLCD>
               gotoLC(1,5);
 310:	81 e0       	ldi	r24, 0x01	; 1
 312:	65 e0       	ldi	r22, 0x05	; 5
 314:	0e 94 e3 02 	call	0x5c6	; 0x5c6 <gotoLC>
               putsLCD("Busy...");
 318:	8d e7       	ldi	r24, 0x7D	; 125
 31a:	90 e0       	ldi	r25, 0x00	; 0
 31c:	0e 94 22 03 	call	0x644	; 0x644 <putsLCD>
               c = atoi(buf_pit);
 320:	ce 01       	movw	r24, r28
 322:	05 96       	adiw	r24, 0x05	; 5
 324:	0e 94 df 03 	call	0x7be	; 0x7be <atoi>
 328:	9c 01       	movw	r18, r24
 32a:	44 27       	eor	r20, r20
 32c:	37 fd       	sbrc	r19, 7
 32e:	40 95       	com	r20
 330:	54 2f       	mov	r21, r20
               //scrie "Busy..." pe linia 1, din coloana 5
               //calculeaza c

               for(a = 1;a<=999;a++){
                  for(b = 1;b<=999;b++){
                     if((a*a + b*b) == c*c )
 332:	ca 01       	movw	r24, r20
 334:	b9 01       	movw	r22, r18
 336:	0e 94 8d 03 	call	0x71a	; 0x71a <__mulsi3>
 33a:	1b 01       	movw	r2, r22
 33c:	2c 01       	movw	r4, r24
 33e:	1b 86       	std	Y+11, r1	; 0x0b
 340:	91 e0       	ldi	r25, 0x01	; 1
 342:	a9 2e       	mov	r10, r25
 344:	b1 2c       	mov	r11, r1
 346:	c1 2c       	mov	r12, r1
 348:	d1 2c       	mov	r13, r1
 34a:	2d c0       	rjmp	.+90     	; 0x3a6 <main+0x314>
 34c:	c8 01       	movw	r24, r16
 34e:	b7 01       	movw	r22, r14
 350:	a8 01       	movw	r20, r16
 352:	97 01       	movw	r18, r14
 354:	0e 94 8d 03 	call	0x71a	; 0x71a <__mulsi3>
 358:	66 0d       	add	r22, r6
 35a:	77 1d       	adc	r23, r7
 35c:	88 1d       	adc	r24, r8
 35e:	99 1d       	adc	r25, r9
 360:	62 15       	cp	r22, r2
 362:	73 05       	cpc	r23, r3
 364:	84 05       	cpc	r24, r4
 366:	95 05       	cpc	r25, r5
 368:	11 f4       	brne	.+4      	; 0x36e <main+0x2dc>
 36a:	31 e0       	ldi	r19, 0x01	; 1
 36c:	3b 87       	std	Y+11, r19	; 0x0b
               
               //scrie "Busy..." pe linia 1, din coloana 5
               //calculeaza c

               for(a = 1;a<=999;a++){
                  for(b = 1;b<=999;b++){
 36e:	08 94       	sec
 370:	e1 1c       	adc	r14, r1
 372:	f1 1c       	adc	r15, r1
 374:	01 1d       	adc	r16, r1
 376:	11 1d       	adc	r17, r1
 378:	48 ee       	ldi	r20, 0xE8	; 232
 37a:	e4 16       	cp	r14, r20
 37c:	43 e0       	ldi	r20, 0x03	; 3
 37e:	f4 06       	cpc	r15, r20
 380:	40 e0       	ldi	r20, 0x00	; 0
 382:	04 07       	cpc	r16, r20
 384:	40 e0       	ldi	r20, 0x00	; 0
 386:	14 07       	cpc	r17, r20
 388:	09 f7       	brne	.-62     	; 0x34c <main+0x2ba>
               c = atoi(buf_pit);
               
               //scrie "Busy..." pe linia 1, din coloana 5
               //calculeaza c

               for(a = 1;a<=999;a++){
 38a:	08 94       	sec
 38c:	a1 1c       	adc	r10, r1
 38e:	b1 1c       	adc	r11, r1
 390:	c1 1c       	adc	r12, r1
 392:	d1 1c       	adc	r13, r1
 394:	58 ee       	ldi	r21, 0xE8	; 232
 396:	a5 16       	cp	r10, r21
 398:	53 e0       	ldi	r21, 0x03	; 3
 39a:	b5 06       	cpc	r11, r21
 39c:	50 e0       	ldi	r21, 0x00	; 0
 39e:	c5 06       	cpc	r12, r21
 3a0:	50 e0       	ldi	r21, 0x00	; 0
 3a2:	d5 06       	cpc	r13, r21
 3a4:	71 f0       	breq	.+28     	; 0x3c2 <main+0x330>
                  for(b = 1;b<=999;b++){
                     if((a*a + b*b) == c*c )
 3a6:	c6 01       	movw	r24, r12
 3a8:	b5 01       	movw	r22, r10
 3aa:	a6 01       	movw	r20, r12
 3ac:	95 01       	movw	r18, r10
 3ae:	0e 94 8d 03 	call	0x71a	; 0x71a <__mulsi3>
 3b2:	3b 01       	movw	r6, r22
 3b4:	4c 01       	movw	r8, r24
 3b6:	81 e0       	ldi	r24, 0x01	; 1
 3b8:	e8 2e       	mov	r14, r24
 3ba:	f1 2c       	mov	r15, r1
 3bc:	01 2d       	mov	r16, r1
 3be:	11 2d       	mov	r17, r1
 3c0:	c5 cf       	rjmp	.-118    	; 0x34c <main+0x2ba>
                        pit = 1;
                  }
               }

               gotoLC(1,5);
 3c2:	81 e0       	ldi	r24, 0x01	; 1
 3c4:	65 e0       	ldi	r22, 0x05	; 5
 3c6:	0e 94 e3 02 	call	0x5c6	; 0x5c6 <gotoLC>
          
      		   if(pit){
 3ca:	8b 85       	ldd	r24, Y+11	; 0x0b
 3cc:	88 23       	and	r24, r24
 3ce:	19 f0       	breq	.+6      	; 0x3d6 <main+0x344>
      		      putsLCD("       PYTH");
 3d0:	85 e8       	ldi	r24, 0x85	; 133
 3d2:	90 e0       	ldi	r25, 0x00	; 0
 3d4:	02 c0       	rjmp	.+4      	; 0x3da <main+0x348>
                  pit = 0;
      		   }
      		   else{
      		      putsLCD("      NPYTH");
 3d6:	81 e9       	ldi	r24, 0x91	; 145
 3d8:	90 e0       	ldi	r25, 0x00	; 0
 3da:	0e 94 22 03 	call	0x644	; 0x644 <putsLCD>
 3de:	11 e0       	ldi	r17, 0x01	; 1
         }//end switch     
     }
       // end c pitagoreic      

      kbhit=0;
      loop_cnt++;
 3e0:	98 89       	ldd	r25, Y+16	; 0x10
 3e2:	9f 5f       	subi	r25, 0xFF	; 255
 3e4:	98 8b       	std	Y+16, r25	; 0x10
   
   setbit(DDRB, OC0);


   while(1){
      if(loop_cnt==200){
 3e6:	98 3c       	cpi	r25, 0xC8	; 200
 3e8:	09 f4       	brne	.+2      	; 0x3ec <main+0x35a>
 3ea:	89 ce       	rjmp	.-750    	; 0xfe <main+0x6c>
 3ec:	00 e0       	ldi	r16, 0x00	; 0
 3ee:	95 ce       	rjmp	.-726    	; 0x11a <main+0x88>
         putsLCD("% " );
      }
      //PWM end

	  //c pitagoreic start
      if( kbhit && kbcode>='0' && kbcode<='9'){
 3f0:	29 89       	ldd	r18, Y+17	; 0x11
 3f2:	20 33       	cpi	r18, 0x30	; 48
 3f4:	08 f0       	brcs	.+2      	; 0x3f8 <main+0x366>
 3f6:	59 cf       	rjmp	.-334    	; 0x2aa <main+0x218>
 3f8:	f3 cf       	rjmp	.-26     	; 0x3e0 <main+0x34e>

000003fa <wait>:

#define nop asm("nop"::);

volatile unsigned long int delay;

void wait(unsigned long int val){
 3fa:	9b 01       	movw	r18, r22
 3fc:	ac 01       	movw	r20, r24
   for(delay=0;delay<val;delay++){}
 3fe:	10 92 be 00 	sts	0x00BE, r1
 402:	10 92 bf 00 	sts	0x00BF, r1
 406:	10 92 c0 00 	sts	0x00C0, r1
 40a:	10 92 c1 00 	sts	0x00C1, r1
 40e:	13 c0       	rjmp	.+38     	; 0x436 <wait+0x3c>
 410:	80 91 be 00 	lds	r24, 0x00BE
 414:	90 91 bf 00 	lds	r25, 0x00BF
 418:	a0 91 c0 00 	lds	r26, 0x00C0
 41c:	b0 91 c1 00 	lds	r27, 0x00C1
 420:	01 96       	adiw	r24, 0x01	; 1
 422:	a1 1d       	adc	r26, r1
 424:	b1 1d       	adc	r27, r1
 426:	80 93 be 00 	sts	0x00BE, r24
 42a:	90 93 bf 00 	sts	0x00BF, r25
 42e:	a0 93 c0 00 	sts	0x00C0, r26
 432:	b0 93 c1 00 	sts	0x00C1, r27
 436:	80 91 be 00 	lds	r24, 0x00BE
 43a:	90 91 bf 00 	lds	r25, 0x00BF
 43e:	a0 91 c0 00 	lds	r26, 0x00C0
 442:	b0 91 c1 00 	lds	r27, 0x00C1
 446:	82 17       	cp	r24, r18
 448:	93 07       	cpc	r25, r19
 44a:	a4 07       	cpc	r26, r20
 44c:	b5 07       	cpc	r27, r21
 44e:	00 f3       	brcs	.-64     	; 0x410 <wait+0x16>
}
 450:	08 95       	ret

00000452 <rd_LCDreg>:

unsigned char rd_LCDreg(unsigned char vRS){
   unsigned char data;
   DDRD = 0x00;
 452:	11 ba       	out	0x11, r1	; 17

   if(vRS==0)
 454:	88 23       	and	r24, r24
 456:	11 f4       	brne	.+4      	; 0x45c <rd_LCDreg+0xa>
      clrbit(PORTB,RS);
 458:	c5 98       	cbi	0x18, 5	; 24
 45a:	01 c0       	rjmp	.+2      	; 0x45e <rd_LCDreg+0xc>
   else
      setbit(PORTB,RS);
 45c:	c5 9a       	sbi	0x18, 5	; 24
   setbit(PORTB,RW);
 45e:	c6 9a       	sbi	0x18, 6	; 24
   nop;
 460:	00 00       	nop
   setbit(PORTB,E);
 462:	c7 9a       	sbi	0x18, 7	; 24
	...
   nop; nop; nop; nop; nop;
 46c:	00 00       	nop
   data = PIND;
 46e:	80 b3       	in	r24, 0x10	; 16
   clrbit(PORTB,E);
 470:	c7 98       	cbi	0x18, 7	; 24
   nop;
 472:	00 00       	nop

   DDRD = 0xff;
 474:	9f ef       	ldi	r25, 0xFF	; 255
 476:	91 bb       	out	0x11, r25	; 17
   return data;
}
 478:	08 95       	ret

0000047a <wr_LCDreg>:

void wr_LCDreg(unsigned char vRS, unsigned char data){
   DDRD = 0xff;
 47a:	9f ef       	ldi	r25, 0xFF	; 255
 47c:	91 bb       	out	0x11, r25	; 17
   if(vRS==0)
 47e:	88 23       	and	r24, r24
 480:	11 f4       	brne	.+4      	; 0x486 <wr_LCDreg+0xc>
      clrbit(PORTB,RS);
 482:	c5 98       	cbi	0x18, 5	; 24
 484:	01 c0       	rjmp	.+2      	; 0x488 <wr_LCDreg+0xe>
   else
      setbit(PORTB,RS);
 486:	c5 9a       	sbi	0x18, 5	; 24
   clrbit(PORTB,RW);
 488:	c6 98       	cbi	0x18, 6	; 24
   PORTD=data;
 48a:	62 bb       	out	0x12, r22	; 18
   nop;
 48c:	00 00       	nop
   setbit(PORTB,E);
 48e:	c7 9a       	sbi	0x18, 7	; 24
   nop; nop; nop;
 490:	00 00       	nop
 492:	00 00       	nop
 494:	00 00       	nop
   clrbit(PORTB,E);
 496:	c7 98       	cbi	0x18, 7	; 24
   nop;
 498:	00 00       	nop
}
 49a:	08 95       	ret

0000049c <ckbf>:


void ckbf(){
   while(rd_LCDreg(SReg) & 1<<7){} 
 49c:	80 e0       	ldi	r24, 0x00	; 0
 49e:	0e 94 29 02 	call	0x452	; 0x452 <rd_LCDreg>
 4a2:	87 fd       	sbrc	r24, 7
 4a4:	fb cf       	rjmp	.-10     	; 0x49c <ckbf>
}
 4a6:	08 95       	ret

000004a8 <initLCD>:

void initLCD(){
   ckbf();
 4a8:	0e 94 4e 02 	call	0x49c	; 0x49c <ckbf>
   // Function set
   //bit 7 6 5 4   3 2 1 0
   //    0 0 1 DL  N F — — 
   //    0 0 1 1   1 1 1 1
   wr_LCDreg(IReg, 0x3f);
 4ac:	80 e0       	ldi	r24, 0x00	; 0
 4ae:	6f e3       	ldi	r22, 0x3F	; 63
 4b0:	0e 94 3d 02 	call	0x47a	; 0x47a <wr_LCDreg>

   ckbf();
 4b4:	0e 94 4e 02 	call	0x49c	; 0x49c <ckbf>
   // entry mode set
   //bit 7 6 5 4   3 2  1  0
   //    0 0 0 0   0 1 I/D S 
   //    0 0 0 0   0 1  1  0
   wr_LCDreg(IReg, 0x06);
 4b8:	80 e0       	ldi	r24, 0x00	; 0
 4ba:	66 e0       	ldi	r22, 0x06	; 6
 4bc:	0e 94 3d 02 	call	0x47a	; 0x47a <wr_LCDreg>

   ckbf();
 4c0:	0e 94 4e 02 	call	0x49c	; 0x49c <ckbf>
   // Display on/off control
   //bit 7 6 5 4   3 2 1 0
   //    0 0 0 0   1 D C B
   //    0 0 0 0   1 1 0 0
   wr_LCDreg(IReg, 0x0c);
 4c4:	80 e0       	ldi	r24, 0x00	; 0
 4c6:	6c e0       	ldi	r22, 0x0C	; 12
 4c8:	0e 94 3d 02 	call	0x47a	; 0x47a <wr_LCDreg>

   ckbf();
 4cc:	0e 94 4e 02 	call	0x49c	; 0x49c <ckbf>
   //Clear display
   wr_LCDreg(IReg, 0x01);
 4d0:	80 e0       	ldi	r24, 0x00	; 0
 4d2:	61 e0       	ldi	r22, 0x01	; 1
 4d4:	0e 94 3d 02 	call	0x47a	; 0x47a <wr_LCDreg>
}
 4d8:	08 95       	ret

000004da <insertSmiley>:

void insertSmiley(){
 4da:	ef 92       	push	r14
 4dc:	ff 92       	push	r15
 4de:	0f 93       	push	r16
 4e0:	1f 93       	push	r17
 4e2:	df 93       	push	r29
 4e4:	cf 93       	push	r28
 4e6:	cd b7       	in	r28, 0x3d	; 61
 4e8:	de b7       	in	r29, 0x3e	; 62
 4ea:	60 97       	sbiw	r28, 0x10	; 16
 4ec:	0f b6       	in	r0, 0x3f	; 63
 4ee:	f8 94       	cli
 4f0:	de bf       	out	0x3e, r29	; 62
 4f2:	0f be       	out	0x3f, r0	; 63
 4f4:	cd bf       	out	0x3d, r28	; 61
      0x00, //12
      0x00, //13
      0x00, //14
      0x00, //15
      0x00, //16
   };
 4f6:	de 01       	movw	r26, r28
 4f8:	11 96       	adiw	r26, 0x01	; 1
 4fa:	ee ea       	ldi	r30, 0xAE	; 174
 4fc:	f0 e0       	ldi	r31, 0x00	; 0
 4fe:	80 e1       	ldi	r24, 0x10	; 16
 500:	01 90       	ld	r0, Z+
 502:	0d 92       	st	X+, r0
 504:	81 50       	subi	r24, 0x01	; 1
 506:	e1 f7       	brne	.-8      	; 0x500 <insertSmiley+0x26>
   
   ckbf();
 508:	0e 94 4e 02 	call	0x49c	; 0x49c <ckbf>
   wr_LCDreg(IReg, 0x50);
 50c:	80 e0       	ldi	r24, 0x00	; 0
 50e:	60 e5       	ldi	r22, 0x50	; 80
 510:	0e 94 3d 02 	call	0x47a	; 0x47a <wr_LCDreg>
 514:	8e 01       	movw	r16, r28
 516:	0f 5f       	subi	r16, 0xFF	; 255
 518:	1f 4f       	sbci	r17, 0xFF	; 255
   for(int i = 0; i<15; i++){
 51a:	80 e1       	ldi	r24, 0x10	; 16
 51c:	e8 2e       	mov	r14, r24
 51e:	f1 2c       	mov	r15, r1
 520:	ec 0e       	add	r14, r28
 522:	fd 1e       	adc	r15, r29
      ckbf();
 524:	0e 94 4e 02 	call	0x49c	; 0x49c <ckbf>
      wr_LCDreg(DReg, smiley[i]);
 528:	81 e0       	ldi	r24, 0x01	; 1
 52a:	f8 01       	movw	r30, r16
 52c:	61 91       	ld	r22, Z+
 52e:	8f 01       	movw	r16, r30
 530:	0e 94 3d 02 	call	0x47a	; 0x47a <wr_LCDreg>
      0x00, //16
   };
   
   ckbf();
   wr_LCDreg(IReg, 0x50);
   for(int i = 0; i<15; i++){
 534:	0e 15       	cp	r16, r14
 536:	1f 05       	cpc	r17, r15
 538:	a9 f7       	brne	.-22     	; 0x524 <insertSmiley+0x4a>
      ckbf();
      wr_LCDreg(DReg, smiley[i]);
   }
   ckbf();
 53a:	0e 94 4e 02 	call	0x49c	; 0x49c <ckbf>
   wr_LCDreg(IReg, 0x80);
 53e:	80 e0       	ldi	r24, 0x00	; 0
 540:	60 e8       	ldi	r22, 0x80	; 128
 542:	0e 94 3d 02 	call	0x47a	; 0x47a <wr_LCDreg>
}
 546:	60 96       	adiw	r28, 0x10	; 16
 548:	0f b6       	in	r0, 0x3f	; 63
 54a:	f8 94       	cli
 54c:	de bf       	out	0x3e, r29	; 62
 54e:	0f be       	out	0x3f, r0	; 63
 550:	cd bf       	out	0x3d, r28	; 61
 552:	cf 91       	pop	r28
 554:	df 91       	pop	r29
 556:	1f 91       	pop	r17
 558:	0f 91       	pop	r16
 55a:	ff 90       	pop	r15
 55c:	ef 90       	pop	r14
 55e:	08 95       	ret

00000560 <sysinit>:

void sysinit(){
   PORTB = 0x00;
 560:	18 ba       	out	0x18, r1	; 24
   DDRB  = 0xe2; //1110 0010
 562:	82 ee       	ldi	r24, 0xE2	; 226
 564:	87 bb       	out	0x17, r24	; 23
   DDRD  = 0xff;
 566:	8f ef       	ldi	r24, 0xFF	; 255
 568:	81 bb       	out	0x11, r24	; 17
#define nop asm("nop"::);

volatile unsigned long int delay;

void wait(unsigned long int val){
   for(delay=0;delay<val;delay++){}
 56a:	10 92 be 00 	sts	0x00BE, r1
 56e:	10 92 bf 00 	sts	0x00BF, r1
 572:	10 92 c0 00 	sts	0x00C0, r1
 576:	10 92 c1 00 	sts	0x00C1, r1
 57a:	13 c0       	rjmp	.+38     	; 0x5a2 <sysinit+0x42>
 57c:	80 91 be 00 	lds	r24, 0x00BE
 580:	90 91 bf 00 	lds	r25, 0x00BF
 584:	a0 91 c0 00 	lds	r26, 0x00C0
 588:	b0 91 c1 00 	lds	r27, 0x00C1
 58c:	01 96       	adiw	r24, 0x01	; 1
 58e:	a1 1d       	adc	r26, r1
 590:	b1 1d       	adc	r27, r1
 592:	80 93 be 00 	sts	0x00BE, r24
 596:	90 93 bf 00 	sts	0x00BF, r25
 59a:	a0 93 c0 00 	sts	0x00C0, r26
 59e:	b0 93 c1 00 	sts	0x00C1, r27
 5a2:	80 91 be 00 	lds	r24, 0x00BE
 5a6:	90 91 bf 00 	lds	r25, 0x00BF
 5aa:	a0 91 c0 00 	lds	r26, 0x00C0
 5ae:	b0 91 c1 00 	lds	r27, 0x00C1
 5b2:	80 5c       	subi	r24, 0xC0	; 192
 5b4:	94 4d       	sbci	r25, 0xD4	; 212
 5b6:	a1 40       	sbci	r26, 0x01	; 1
 5b8:	b0 40       	sbci	r27, 0x00	; 0
 5ba:	00 f3       	brcs	.-64     	; 0x57c <sysinit+0x1c>
void sysinit(){
   PORTB = 0x00;
   DDRB  = 0xe2; //1110 0010
   DDRD  = 0xff;
   wait(120000UL);
   initLCD();
 5bc:	0e 94 54 02 	call	0x4a8	; 0x4a8 <initLCD>
   insertSmiley();
 5c0:	0e 94 6d 02 	call	0x4da	; 0x4da <insertSmiley>
}
 5c4:	08 95       	ret

000005c6 <gotoLC>:


void gotoLC(unsigned char line, unsigned char col){
 5c6:	0f 93       	push	r16
 5c8:	1f 93       	push	r17
 5ca:	08 2f       	mov	r16, r24
 5cc:	16 2f       	mov	r17, r22

   if( line > 0 && line <3 && col > 0 && col < 17 ){
 5ce:	81 50       	subi	r24, 0x01	; 1
 5d0:	82 30       	cpi	r24, 0x02	; 2
 5d2:	a0 f4       	brcc	.+40     	; 0x5fc <gotoLC+0x36>
 5d4:	66 23       	and	r22, r22
 5d6:	91 f0       	breq	.+36     	; 0x5fc <gotoLC+0x36>
 5d8:	61 31       	cpi	r22, 0x11	; 17
 5da:	80 f4       	brcc	.+32     	; 0x5fc <gotoLC+0x36>
      ckbf();
 5dc:	0e 94 4e 02 	call	0x49c	; 0x49c <ckbf>
      wr_LCDreg(IReg, 0x80+(line-1)*0x40+col-1);
 5e0:	11 50       	subi	r17, 0x01	; 1
 5e2:	80 2f       	mov	r24, r16
 5e4:	90 e0       	ldi	r25, 0x00	; 0
 5e6:	01 96       	adiw	r24, 0x01	; 1
 5e8:	26 e0       	ldi	r18, 0x06	; 6
 5ea:	88 0f       	add	r24, r24
 5ec:	99 1f       	adc	r25, r25
 5ee:	2a 95       	dec	r18
 5f0:	e1 f7       	brne	.-8      	; 0x5ea <gotoLC+0x24>
 5f2:	18 0f       	add	r17, r24
 5f4:	80 e0       	ldi	r24, 0x00	; 0
 5f6:	61 2f       	mov	r22, r17
 5f8:	0e 94 3d 02 	call	0x47a	; 0x47a <wr_LCDreg>
   }

}
 5fc:	1f 91       	pop	r17
 5fe:	0f 91       	pop	r16
 600:	08 95       	ret

00000602 <putchLCD>:

void putchLCD(char ch){
 602:	1f 93       	push	r17
 604:	18 2f       	mov	r17, r24
   ckbf();
 606:	0e 94 4e 02 	call	0x49c	; 0x49c <ckbf>
   wr_LCDreg(DReg, ch);
 60a:	81 e0       	ldi	r24, 0x01	; 1
 60c:	61 2f       	mov	r22, r17
 60e:	0e 94 3d 02 	call	0x47a	; 0x47a <wr_LCDreg>
   ckbf();
 612:	0e 94 4e 02 	call	0x49c	; 0x49c <ckbf>
    can be achieved.
*/
void
_delay_loop_1(uint8_t __count)
{
	__asm__ volatile (
 616:	85 e1       	ldi	r24, 0x15	; 21
 618:	8a 95       	dec	r24
 61a:	f1 f7       	brne	.-4      	; 0x618 <putchLCD+0x16>
   _delay_us(8);
   if((rd_LCDreg(SReg) & ~(1<<7) ) == 0x10)
 61c:	80 e0       	ldi	r24, 0x00	; 0
 61e:	0e 94 29 02 	call	0x452	; 0x452 <rd_LCDreg>
 622:	8f 77       	andi	r24, 0x7F	; 127
 624:	80 31       	cpi	r24, 0x10	; 16
 626:	11 f4       	brne	.+4      	; 0x62c <putchLCD+0x2a>
      gotoLC(2,1);
 628:	82 e0       	ldi	r24, 0x02	; 2
 62a:	07 c0       	rjmp	.+14     	; 0x63a <putchLCD+0x38>
   else if((rd_LCDreg(SReg) & ~(1<<7)) == 0x50)
 62c:	80 e0       	ldi	r24, 0x00	; 0
 62e:	0e 94 29 02 	call	0x452	; 0x452 <rd_LCDreg>
 632:	8f 77       	andi	r24, 0x7F	; 127
 634:	80 35       	cpi	r24, 0x50	; 80
 636:	21 f4       	brne	.+8      	; 0x640 <putchLCD+0x3e>
      gotoLC(1,1);
 638:	81 e0       	ldi	r24, 0x01	; 1
 63a:	61 e0       	ldi	r22, 0x01	; 1
 63c:	0e 94 e3 02 	call	0x5c6	; 0x5c6 <gotoLC>
}
 640:	1f 91       	pop	r17
 642:	08 95       	ret

00000644 <putsLCD>:

void putsLCD(char* ch){
 644:	cf 93       	push	r28
 646:	df 93       	push	r29
 648:	ec 01       	movw	r28, r24
 64a:	02 c0       	rjmp	.+4      	; 0x650 <putsLCD+0xc>
   for(int i=0; ch[i] != '\0'; i++)
      putchLCD(ch[i]);
 64c:	0e 94 01 03 	call	0x602	; 0x602 <putchLCD>
   else if((rd_LCDreg(SReg) & ~(1<<7)) == 0x50)
      gotoLC(1,1);
}

void putsLCD(char* ch){
   for(int i=0; ch[i] != '\0'; i++)
 650:	89 91       	ld	r24, Y+
 652:	88 23       	and	r24, r24
 654:	d9 f7       	brne	.-10     	; 0x64c <putsLCD+0x8>
      putchLCD(ch[i]);
}
 656:	df 91       	pop	r29
 658:	cf 91       	pop	r28
 65a:	08 95       	ret

0000065c <clrLCD>:

void clrLCD(){
   ckbf();
 65c:	0e 94 4e 02 	call	0x49c	; 0x49c <ckbf>
   wr_LCDreg(IReg, 0x01);
 660:	80 e0       	ldi	r24, 0x00	; 0
 662:	61 e0       	ldi	r22, 0x01	; 1
 664:	0e 94 3d 02 	call	0x47a	; 0x47a <wr_LCDreg>
}
 668:	08 95       	ret

0000066a <kbscan>:

char kbscan(){
 66a:	df 93       	push	r29
 66c:	cf 93       	push	r28
 66e:	cd b7       	in	r28, 0x3d	; 61
 670:	de b7       	in	r29, 0x3e	; 62
 672:	61 97       	sbiw	r28, 0x11	; 17
 674:	0f b6       	in	r0, 0x3f	; 63
 676:	f8 94       	cli
 678:	de bf       	out	0x3e, r29	; 62
 67a:	0f be       	out	0x3f, r0	; 63
 67c:	cd bf       	out	0x3d, r28	; 61
   unsigned char cod_intern;
   unsigned char cols;
   char cod_extern;
   char tabela_trans[]="123A456B789C*0#D";

   for( DDRA = 1<<4; DDRA != 0; DDRA = DDRA = DDRA << 1 ) { 
 67e:	80 e1       	ldi	r24, 0x10	; 16
 680:	0e c0       	rjmp	.+28     	; 0x69e <kbscan+0x34>
	...
      nop; nop; nop; nop; nop; nop;
      cols=~PINA;
 68e:	29 b3       	in	r18, 0x19	; 25
 690:	20 95       	com	r18
      cols = cols & 0x0F;
 692:	2f 70       	andi	r18, 0x0F	; 15
      if(cols != 0)
 694:	51 f4       	brne	.+20     	; 0x6aa <kbscan+0x40>
   unsigned char cod_intern;
   unsigned char cols;
   char cod_extern;
   char tabela_trans[]="123A456B789C*0#D";

   for( DDRA = 1<<4; DDRA != 0; DDRA = DDRA = DDRA << 1 ) { 
 696:	8a b3       	in	r24, 0x1a	; 26
 698:	88 0f       	add	r24, r24
 69a:	8a bb       	out	0x1a, r24	; 26
 69c:	8a b3       	in	r24, 0x1a	; 26
 69e:	8a bb       	out	0x1a, r24	; 26
 6a0:	8a b3       	in	r24, 0x1a	; 26
 6a2:	88 23       	and	r24, r24
 6a4:	71 f7       	brne	.-36     	; 0x682 <kbscan+0x18>
 6a6:	8f e7       	ldi	r24, 0x7F	; 127
 6a8:	2f c0       	rjmp	.+94     	; 0x708 <kbscan+0x9e>
   }

   if(cols == 0)
      return NOKEY;

   temp=DDRA;
 6aa:	8a b3       	in	r24, 0x1a	; 26
   if(temp == 0x10){
 6ac:	80 31       	cpi	r24, 0x10	; 16
 6ae:	61 f0       	breq	.+24     	; 0x6c8 <kbscan+0x5e>
      La = 0;
   } else if (temp == 0x20) {
 6b0:	80 32       	cpi	r24, 0x20	; 32
 6b2:	11 f4       	brne	.+4      	; 0x6b8 <kbscan+0x4e>
 6b4:	91 e0       	ldi	r25, 0x01	; 1
 6b6:	09 c0       	rjmp	.+18     	; 0x6ca <kbscan+0x60>
      La = 1;
   } else if (temp == 0x40) {
 6b8:	80 34       	cpi	r24, 0x40	; 64
 6ba:	11 f4       	brne	.+4      	; 0x6c0 <kbscan+0x56>
 6bc:	92 e0       	ldi	r25, 0x02	; 2
 6be:	05 c0       	rjmp	.+10     	; 0x6ca <kbscan+0x60>
      La = 2;
   } else if (temp == 0x80) {
 6c0:	80 38       	cpi	r24, 0x80	; 128
 6c2:	11 f4       	brne	.+4      	; 0x6c8 <kbscan+0x5e>
 6c4:	93 e0       	ldi	r25, 0x03	; 3
 6c6:	01 c0       	rjmp	.+2      	; 0x6ca <kbscan+0x60>
 6c8:	90 e0       	ldi	r25, 0x00	; 0
      La = 3;
   }
   
   if(cols & 0x01){
 6ca:	20 fd       	sbrc	r18, 0
 6cc:	0c c0       	rjmp	.+24     	; 0x6e6 <kbscan+0x7c>
      Ca = 0;
   } else if (cols & 0x02) {
 6ce:	21 ff       	sbrs	r18, 1
 6d0:	02 c0       	rjmp	.+4      	; 0x6d6 <kbscan+0x6c>
 6d2:	21 e0       	ldi	r18, 0x01	; 1
 6d4:	09 c0       	rjmp	.+18     	; 0x6e8 <kbscan+0x7e>
      Ca = 1;
   } else if (cols & 0x04) {
 6d6:	22 ff       	sbrs	r18, 2
 6d8:	02 c0       	rjmp	.+4      	; 0x6de <kbscan+0x74>
 6da:	22 e0       	ldi	r18, 0x02	; 2
 6dc:	05 c0       	rjmp	.+10     	; 0x6e8 <kbscan+0x7e>
      Ca = 2;
   } else if (cols & 0x08) {
 6de:	23 ff       	sbrs	r18, 3
 6e0:	02 c0       	rjmp	.+4      	; 0x6e6 <kbscan+0x7c>
 6e2:	23 e0       	ldi	r18, 0x03	; 3
 6e4:	01 c0       	rjmp	.+2      	; 0x6e8 <kbscan+0x7e>
 6e6:	20 e0       	ldi	r18, 0x00	; 0
   unsigned char temp;
   unsigned char La=0, Ca=0;
   unsigned char cod_intern;
   unsigned char cols;
   char cod_extern;
   char tabela_trans[]="123A456B789C*0#D";
 6e8:	de 01       	movw	r26, r28
 6ea:	11 96       	adiw	r26, 0x01	; 1
 6ec:	ed e9       	ldi	r30, 0x9D	; 157
 6ee:	f0 e0       	ldi	r31, 0x00	; 0
 6f0:	81 e1       	ldi	r24, 0x11	; 17
 6f2:	01 90       	ld	r0, Z+
 6f4:	0d 92       	st	X+, r0
 6f6:	81 50       	subi	r24, 0x01	; 1
 6f8:	e1 f7       	brne	.-8      	; 0x6f2 <kbscan+0x88>
      Ca = 3;
   }

   
   cod_intern = La * 4 + Ca;
   cod_extern = tabela_trans[cod_intern];
 6fa:	99 0f       	add	r25, r25
 6fc:	99 0f       	add	r25, r25
 6fe:	92 0f       	add	r25, r18
 700:	fe 01       	movw	r30, r28
 702:	e9 0f       	add	r30, r25
 704:	f1 1d       	adc	r31, r1
 706:	81 81       	ldd	r24, Z+1	; 0x01

   return cod_extern;
}
 708:	61 96       	adiw	r28, 0x11	; 17
 70a:	0f b6       	in	r0, 0x3f	; 63
 70c:	f8 94       	cli
 70e:	de bf       	out	0x3e, r29	; 62
 710:	0f be       	out	0x3f, r0	; 63
 712:	cd bf       	out	0x3d, r28	; 61
 714:	cf 91       	pop	r28
 716:	df 91       	pop	r29
 718:	08 95       	ret

0000071a <__mulsi3>:
 71a:	62 9f       	mul	r22, r18
 71c:	d0 01       	movw	r26, r0
 71e:	73 9f       	mul	r23, r19
 720:	f0 01       	movw	r30, r0
 722:	82 9f       	mul	r24, r18
 724:	e0 0d       	add	r30, r0
 726:	f1 1d       	adc	r31, r1
 728:	64 9f       	mul	r22, r20
 72a:	e0 0d       	add	r30, r0
 72c:	f1 1d       	adc	r31, r1
 72e:	92 9f       	mul	r25, r18
 730:	f0 0d       	add	r31, r0
 732:	83 9f       	mul	r24, r19
 734:	f0 0d       	add	r31, r0
 736:	74 9f       	mul	r23, r20
 738:	f0 0d       	add	r31, r0
 73a:	65 9f       	mul	r22, r21
 73c:	f0 0d       	add	r31, r0
 73e:	99 27       	eor	r25, r25
 740:	72 9f       	mul	r23, r18
 742:	b0 0d       	add	r27, r0
 744:	e1 1d       	adc	r30, r1
 746:	f9 1f       	adc	r31, r25
 748:	63 9f       	mul	r22, r19
 74a:	b0 0d       	add	r27, r0
 74c:	e1 1d       	adc	r30, r1
 74e:	f9 1f       	adc	r31, r25
 750:	bd 01       	movw	r22, r26
 752:	cf 01       	movw	r24, r30
 754:	11 24       	eor	r1, r1
 756:	08 95       	ret

00000758 <__udivmodqi4>:
 758:	99 1b       	sub	r25, r25
 75a:	79 e0       	ldi	r23, 0x09	; 9
 75c:	04 c0       	rjmp	.+8      	; 0x766 <__udivmodqi4_ep>

0000075e <__udivmodqi4_loop>:
 75e:	99 1f       	adc	r25, r25
 760:	96 17       	cp	r25, r22
 762:	08 f0       	brcs	.+2      	; 0x766 <__udivmodqi4_ep>
 764:	96 1b       	sub	r25, r22

00000766 <__udivmodqi4_ep>:
 766:	88 1f       	adc	r24, r24
 768:	7a 95       	dec	r23
 76a:	c9 f7       	brne	.-14     	; 0x75e <__udivmodqi4_loop>
 76c:	80 95       	com	r24
 76e:	08 95       	ret

00000770 <__divmodhi4>:
 770:	97 fb       	bst	r25, 7
 772:	09 2e       	mov	r0, r25
 774:	07 26       	eor	r0, r23
 776:	0a d0       	rcall	.+20     	; 0x78c <__divmodhi4_neg1>
 778:	77 fd       	sbrc	r23, 7
 77a:	04 d0       	rcall	.+8      	; 0x784 <__divmodhi4_neg2>
 77c:	0c d0       	rcall	.+24     	; 0x796 <__udivmodhi4>
 77e:	06 d0       	rcall	.+12     	; 0x78c <__divmodhi4_neg1>
 780:	00 20       	and	r0, r0
 782:	1a f4       	brpl	.+6      	; 0x78a <__divmodhi4_exit>

00000784 <__divmodhi4_neg2>:
 784:	70 95       	com	r23
 786:	61 95       	neg	r22
 788:	7f 4f       	sbci	r23, 0xFF	; 255

0000078a <__divmodhi4_exit>:
 78a:	08 95       	ret

0000078c <__divmodhi4_neg1>:
 78c:	f6 f7       	brtc	.-4      	; 0x78a <__divmodhi4_exit>
 78e:	90 95       	com	r25
 790:	81 95       	neg	r24
 792:	9f 4f       	sbci	r25, 0xFF	; 255
 794:	08 95       	ret

00000796 <__udivmodhi4>:
 796:	aa 1b       	sub	r26, r26
 798:	bb 1b       	sub	r27, r27
 79a:	51 e1       	ldi	r21, 0x11	; 17
 79c:	07 c0       	rjmp	.+14     	; 0x7ac <__udivmodhi4_ep>

0000079e <__udivmodhi4_loop>:
 79e:	aa 1f       	adc	r26, r26
 7a0:	bb 1f       	adc	r27, r27
 7a2:	a6 17       	cp	r26, r22
 7a4:	b7 07       	cpc	r27, r23
 7a6:	10 f0       	brcs	.+4      	; 0x7ac <__udivmodhi4_ep>
 7a8:	a6 1b       	sub	r26, r22
 7aa:	b7 0b       	sbc	r27, r23

000007ac <__udivmodhi4_ep>:
 7ac:	88 1f       	adc	r24, r24
 7ae:	99 1f       	adc	r25, r25
 7b0:	5a 95       	dec	r21
 7b2:	a9 f7       	brne	.-22     	; 0x79e <__udivmodhi4_loop>
 7b4:	80 95       	com	r24
 7b6:	90 95       	com	r25
 7b8:	bc 01       	movw	r22, r24
 7ba:	cd 01       	movw	r24, r26
 7bc:	08 95       	ret

000007be <atoi>:
 7be:	fc 01       	movw	r30, r24
 7c0:	88 27       	eor	r24, r24
 7c2:	99 27       	eor	r25, r25
 7c4:	e8 94       	clt
 7c6:	21 91       	ld	r18, Z+
 7c8:	20 32       	cpi	r18, 0x20	; 32
 7ca:	e9 f3       	breq	.-6      	; 0x7c6 <atoi+0x8>
 7cc:	29 30       	cpi	r18, 0x09	; 9
 7ce:	10 f0       	brcs	.+4      	; 0x7d4 <atoi+0x16>
 7d0:	2e 30       	cpi	r18, 0x0E	; 14
 7d2:	c8 f3       	brcs	.-14     	; 0x7c6 <atoi+0x8>
 7d4:	2b 32       	cpi	r18, 0x2B	; 43
 7d6:	41 f0       	breq	.+16     	; 0x7e8 <atoi+0x2a>
 7d8:	2d 32       	cpi	r18, 0x2D	; 45
 7da:	39 f4       	brne	.+14     	; 0x7ea <atoi+0x2c>
 7dc:	68 94       	set
 7de:	04 c0       	rjmp	.+8      	; 0x7e8 <atoi+0x2a>
 7e0:	0e 94 1e 04 	call	0x83c	; 0x83c <__mulhi_const_10>
 7e4:	82 0f       	add	r24, r18
 7e6:	91 1d       	adc	r25, r1
 7e8:	21 91       	ld	r18, Z+
 7ea:	20 53       	subi	r18, 0x30	; 48
 7ec:	2a 30       	cpi	r18, 0x0A	; 10
 7ee:	c0 f3       	brcs	.-16     	; 0x7e0 <atoi+0x22>
 7f0:	1e f4       	brtc	.+6      	; 0x7f8 <atoi+0x3a>
 7f2:	90 95       	com	r25
 7f4:	81 95       	neg	r24
 7f6:	9f 4f       	sbci	r25, 0xFF	; 255
 7f8:	08 95       	ret

000007fa <itoa>:
 7fa:	fb 01       	movw	r30, r22
 7fc:	9f 01       	movw	r18, r30
 7fe:	e8 94       	clt
 800:	42 30       	cpi	r20, 0x02	; 2
 802:	c4 f0       	brlt	.+48     	; 0x834 <itoa+0x3a>
 804:	45 32       	cpi	r20, 0x25	; 37
 806:	b4 f4       	brge	.+44     	; 0x834 <itoa+0x3a>
 808:	4a 30       	cpi	r20, 0x0A	; 10
 80a:	29 f4       	brne	.+10     	; 0x816 <itoa+0x1c>
 80c:	97 fb       	bst	r25, 7
 80e:	1e f4       	brtc	.+6      	; 0x816 <itoa+0x1c>
 810:	90 95       	com	r25
 812:	81 95       	neg	r24
 814:	9f 4f       	sbci	r25, 0xFF	; 255
 816:	64 2f       	mov	r22, r20
 818:	77 27       	eor	r23, r23
 81a:	0e 94 cb 03 	call	0x796	; 0x796 <__udivmodhi4>
 81e:	80 5d       	subi	r24, 0xD0	; 208
 820:	8a 33       	cpi	r24, 0x3A	; 58
 822:	0c f0       	brlt	.+2      	; 0x826 <itoa+0x2c>
 824:	89 5d       	subi	r24, 0xD9	; 217
 826:	81 93       	st	Z+, r24
 828:	cb 01       	movw	r24, r22
 82a:	00 97       	sbiw	r24, 0x00	; 0
 82c:	a1 f7       	brne	.-24     	; 0x816 <itoa+0x1c>
 82e:	16 f4       	brtc	.+4      	; 0x834 <itoa+0x3a>
 830:	5d e2       	ldi	r21, 0x2D	; 45
 832:	51 93       	st	Z+, r21
 834:	10 82       	st	Z, r1
 836:	c9 01       	movw	r24, r18
 838:	0c 94 26 04 	jmp	0x84c	; 0x84c <strrev>

0000083c <__mulhi_const_10>:
 83c:	7a e0       	ldi	r23, 0x0A	; 10
 83e:	97 9f       	mul	r25, r23
 840:	90 2d       	mov	r25, r0
 842:	87 9f       	mul	r24, r23
 844:	80 2d       	mov	r24, r0
 846:	91 0d       	add	r25, r1
 848:	11 24       	eor	r1, r1
 84a:	08 95       	ret

0000084c <strrev>:
 84c:	dc 01       	movw	r26, r24
 84e:	fc 01       	movw	r30, r24
 850:	67 2f       	mov	r22, r23
 852:	71 91       	ld	r23, Z+
 854:	77 23       	and	r23, r23
 856:	e1 f7       	brne	.-8      	; 0x850 <strrev+0x4>
 858:	32 97       	sbiw	r30, 0x02	; 2
 85a:	04 c0       	rjmp	.+8      	; 0x864 <strrev+0x18>
 85c:	7c 91       	ld	r23, X
 85e:	6d 93       	st	X+, r22
 860:	70 83       	st	Z, r23
 862:	62 91       	ld	r22, -Z
 864:	ae 17       	cp	r26, r30
 866:	bf 07       	cpc	r27, r31
 868:	c8 f3       	brcs	.-14     	; 0x85c <strrev+0x10>
 86a:	08 95       	ret

0000086c <_exit>:
 86c:	f8 94       	cli

0000086e <__stop_program>:
 86e:	ff cf       	rjmp	.-2      	; 0x86e <__stop_program>
